; ModuleID = 'source-C-CXX/55/1802.c'
source_filename = "source-C-CXX/55/1802.c"
target datalayout = "e-m:e-p270:32:32-p271:32:32-p272:64:64-i64:64-f80:128-n8:16:32:64-S128"
target triple = "x86_64-pc-linux-gnu"

@.str = private unnamed_addr constant [3 x i8] c"%d\00", align 1
@.str.1 = private unnamed_addr constant [4 x i8] c"%d\0A\00", align 1

; Function Attrs: nofree nounwind sspstrong uwtable
define dso_local i32 @main() local_unnamed_addr #0 {
  %1 = alloca i32, align 4
  %2 = bitcast i32* %1 to i8*
  call void @llvm.lifetime.start.p0i8(i64 4, i8* nonnull %2) #3
  %3 = call i32 (i8*, ...) @__isoc99_scanf(i8* getelementptr inbounds ([3 x i8], [3 x i8]* @.str, i64 0, i64 0), i32* nonnull %1)
  %4 = load i32, i32* %1, align 4, !tbaa !5
  %5 = srem i32 %4, 10000
  %6 = trunc i32 %5 to i16
  %7 = srem i16 %6, 1000
  %8 = srem i16 %7, 100
  %9 = trunc i16 %8 to i8
  %10 = srem i8 %9, 10
  %11 = sext i8 %10 to i32
  %12 = sdiv i8 %9, 10
  %13 = sext i8 %12 to i32
  %14 = sdiv i16 %7, 100
  %15 = sext i16 %14 to i32
  %16 = sdiv i16 %6, 1000
  %17 = sext i16 %16 to i32
  %18 = sdiv i32 %4, 10000
  %19 = icmp slt i32 %4, 10
  br i1 %19, label %52, label %20

20:                                               ; preds = %0
  %21 = icmp slt i32 %4, 100
  br i1 %21, label %22, label %25

22:                                               ; preds = %20
  %23 = mul nsw i32 %11, 10
  %24 = add nsw i32 %23, %13
  br label %52

25:                                               ; preds = %20
  %26 = icmp slt i32 %4, 1000
  br i1 %26, label %27, label %32

27:                                               ; preds = %25
  %28 = mul nsw i32 %11, 100
  %29 = mul nsw i32 %13, 10
  %30 = add nsw i32 %29, %15
  %31 = add nsw i32 %30, %28
  br label %52

32:                                               ; preds = %25
  %33 = icmp slt i32 %4, 10000
  br i1 %33, label %34, label %41

34:                                               ; preds = %32
  %35 = mul nsw i32 %11, 1000
  %36 = mul nsw i32 %13, 100
  %37 = mul nsw i32 %15, 10
  %38 = add nsw i32 %37, %17
  %39 = add nsw i32 %38, %36
  %40 = add nsw i32 %39, %35
  br label %52

41:                                               ; preds = %32
  %42 = icmp slt i32 %4, 99999
  br i1 %42, label %43, label %52

43:                                               ; preds = %41
  %44 = mul nsw i32 %11, 10000
  %45 = mul nsw i32 %13, 1000
  %46 = mul nsw i32 %15, 100
  %47 = mul nsw i32 %17, 10
  %48 = add nsw i32 %47, %18
  %49 = add nsw i32 %48, %46
  %50 = add nsw i32 %49, %45
  %51 = add nsw i32 %50, %44
  br label %52

52:                                               ; preds = %41, %43, %0, %34, %27, %22
  %53 = phi i32 [ %40, %34 ], [ %31, %27 ], [ %24, %22 ], [ %4, %0 ], [ %51, %43 ], [ undef, %41 ]
  %54 = call i32 (i8*, ...) @printf(i8* nonnull dereferenceable(1) getelementptr inbounds ([4 x i8], [4 x i8]* @.str.1, i64 0, i64 0), i32 %53)
  call void @llvm.lifetime.end.p0i8(i64 4, i8* nonnull %2) #3
  ret i32 0
}

; Function Attrs: argmemonly mustprogress nofree nosync nounwind willreturn
declare void @llvm.lifetime.start.p0i8(i64 immarg, i8* nocapture) #1

; Function Attrs: nofree nounwind
declare noundef i32 @__isoc99_scanf(i8* nocapture noundef readonly, ...) local_unnamed_addr #2

; Function Attrs: nofree nounwind
declare noundef i32 @printf(i8* nocapture noundef readonly, ...) local_unnamed_addr #2

; Function Attrs: argmemonly mustprogress nofree nosync nounwind willreturn
declare void @llvm.lifetime.end.p0i8(i64 immarg, i8* nocapture) #1


!llvm.module.flags = !{!0, !1, !2, !3}
!llvm.ident = !{!4}

!0 = !{i32 1, !"wchar_size", i32 4}
!1 = !{i32 7, !"PIC Level", i32 2}
!2 = !{i32 7, !"PIE Level", i32 2}
!3 = !{i32 7, !"uwtable", i32 1}
!4 = !{!"clang version 13.0.0"}
!5 = !{!6, !6, i64 0}
!6 = !{!"int", !7, i64 0}
!7 = !{!"omnipotent char", !8, i64 0}
!8 = !{!"Simple C/C++ TBAA"}
